target datalayout = "e-m:e-p270:32:32-p271:32:32-p272:64:64-i64:64-i128:128-f80:128-n8:16:32:64-S128"
target triple = "x86_64-pc-linux-gnu"

%struct.PyStatus = type { i32, ptr, ptr, i32 }

@_Py_tss_tstate = hidden thread_local global ptr null, align 8

; Function Attrs: inlinehint nounwind uwtable
define internal ptr @current_fast_get() #1 {
  %1 = call align 8 ptr @llvm.threadlocal.address.p0(ptr align 8 @_Py_tss_tstate)
  %2 = load ptr, ptr %1, align 8, !tbaa !4
  ret ptr %2
}

; Function Attrs: nounwind uwtable
define dso_local ptr @PyInterpreterState_New() #0 {
  %1 = alloca ptr, align 8
  %2 = alloca ptr, align 8
  %3 = alloca %struct.PyStatus, align 8
  call void @llvm.lifetime.start.p0(i64 8, ptr %1) #10
  %4 = call ptr @current_fast_get()
  store ptr %4, ptr %1, align 8, !tbaa !4
  call void @llvm.lifetime.start.p0(i64 8, ptr %2) #10
  call void @llvm.lifetime.start.p0(i64 32, ptr %3) #10
  %5 = load ptr, ptr %1, align 8, !tbaa !4
  call void @_PyInterpreterState_New(ptr dead_on_unwind writable sret(%struct.PyStatus) align 8 %3, ptr noundef %5, ptr noundef %2)
  %6 = getelementptr inbounds nuw %struct.PyStatus, ptr %3, i32 0, i32 0
  %7 = load i32, ptr %6, align 8, !tbaa !184
  %8 = icmp ne i32 %7, 0
  br i1 %8, label %9, label %10

9:                                                ; preds = %0
  call void @Py_ExitStatusException(ptr noundef byval(%struct.PyStatus) align 8 %3) #11
  unreachable

10:                                               ; preds = %0
  %11 = load ptr, ptr %2, align 8, !tbaa !204
  call void @llvm.lifetime.end.p0(i64 32, ptr %3) #10
  call void @llvm.lifetime.end.p0(i64 8, ptr %2) #10
  call void @llvm.lifetime.end.p0(i64 8, ptr %1) #10
  ret ptr %11
}