; Function Attrs: nounwind uwtable
define dso_local ptr @PyInterpreterState_New() local_unnamed_addr #1 {
  %1 = alloca ptr, align 8
  %2 = alloca %struct.PyStatus, align 8
  %3 = tail call align 8 ptr @llvm.threadlocal.address.p0(ptr align 8 @_Py_tss_tstate)
  %4 = load ptr, ptr %3, align 8, !tbaa !4
  call void @llvm.lifetime.start.p0(i64 8, ptr nonnull %1) #16
  call void @llvm.lifetime.start.p0(i64 32, ptr nonnull %2) #16
  call void @_PyInterpreterState_New(ptr dead_on_unwind nonnull writable sret(%struct.PyStatus) align 8 %2, ptr noundef %4, ptr noundef nonnull %1)
  %5 = load i32, ptr %2, align 8, !tbaa !180
  %.not = icmp eq i32 %5, 0
  br i1 %.not, label %7, label %6

6:                                                ; preds = %0
  tail call void @Py_ExitStatusException(ptr noundef nonnull byval(%struct.PyStatus) align 8 %2) #17
  unreachable

7:                                                ; preds = %0
  %8 = load ptr, ptr %1, align 8, !tbaa !196
  call void @llvm.lifetime.end.p0(i64 32, ptr nonnull %2) #16
  call void @llvm.lifetime.end.p0(i64 8, ptr nonnull %1) #16
  ret ptr %8
}